target datalayout = "e-m:e-p270:32:32-p271:32:32-p272:64:64-i64:64-i128:128-f80:128-n8:16:32:64-S128"
target triple = "x86_64-pc-linux-gnu"

%struct.Aig_Obj_t_ = type { %union.anon, ptr, ptr, i64, i32, i32, %union.anon.0 }
%union.anon = type { ptr }
%union.anon.0 = type { ptr }
%struct.Fra_Sml_t_ = type { ptr, i32, i32, i32, i32, i32, i32, i32, i32, [0 x i32] }

; Function Attrs: inlinehint nounwind uwtable
define internal ptr @Fra_ObjSim(ptr noundef %0, i32 noundef %1) #2 {
  %3 = alloca ptr, align 8
  %4 = alloca i32, align 4
  store ptr %0, ptr %3, align 8, !tbaa !35
  store i32 %1, ptr %4, align 4, !tbaa !8
  %5 = load ptr, ptr %3, align 8, !tbaa !35
  %6 = getelementptr inbounds nuw %struct.Fra_Sml_t_, ptr %5, i32 0, i32 9
  %7 = getelementptr inbounds [0 x i32], ptr %6, i64 0, i64 0
  %8 = load ptr, ptr %3, align 8, !tbaa !35
  %9 = getelementptr inbounds nuw %struct.Fra_Sml_t_, ptr %8, i32 0, i32 4
  %10 = load i32, ptr %9, align 4, !tbaa !32
  %11 = load i32, ptr %4, align 4, !tbaa !8
  %12 = mul nsw i32 %10, %11
  %13 = sext i32 %12 to i64
  %14 = getelementptr inbounds i32, ptr %7, i64 %13
  ret ptr %14
}

; Function Attrs: nounwind uwtable
define void @Fra_SmlAssignConst(ptr noundef %0, ptr noundef %1, i32 noundef %2, i32 noundef %3) #0 {
  %5 = alloca ptr, align 8
  %6 = alloca ptr, align 8
  %7 = alloca i32, align 4
  %8 = alloca i32, align 4
  %9 = alloca ptr, align 8
  %10 = alloca i32, align 4
  store ptr %0, ptr %5, align 8, !tbaa !35
  store ptr %1, ptr %6, align 8, !tbaa !3
  store i32 %2, ptr %7, align 4, !tbaa !8
  store i32 %3, ptr %8, align 4, !tbaa !8
  call void @llvm.lifetime.start.p0(i64 8, ptr %9) #8
  call void @llvm.lifetime.start.p0(i64 4, ptr %10) #8
  %11 = load ptr, ptr %5, align 8, !tbaa !35
  %12 = load ptr, ptr %6, align 8, !tbaa !3
  %13 = getelementptr inbounds nuw %struct.Aig_Obj_t_, ptr %12, i32 0, i32 5
  %14 = load i32, ptr %13, align 4, !tbaa !27
  %15 = call ptr @Fra_ObjSim(ptr noundef %11, i32 noundef %14)
  %16 = load ptr, ptr %5, align 8, !tbaa !35
  %17 = getelementptr inbounds nuw %struct.Fra_Sml_t_, ptr %16, i32 0, i32 3
  %18 = load i32, ptr %17, align 8, !tbaa !92
  %19 = load i32, ptr %8, align 4, !tbaa !8
  %20 = mul nsw i32 %18, %19
  %21 = sext i32 %20 to i64
  %22 = getelementptr inbounds i32, ptr %15, i64 %21
  store ptr %22, ptr %9, align 8, !tbaa !29
  store i32 0, ptr %10, align 4, !tbaa !8
  br label %23

23:                                               ; preds = %37, %4
  %24 = load i32, ptr %10, align 4, !tbaa !8
  %25 = load ptr, ptr %5, align 8, !tbaa !35
  %26 = getelementptr inbounds nuw %struct.Fra_Sml_t_, ptr %25, i32 0, i32 3
  %27 = load i32, ptr %26, align 8, !tbaa !92
  %28 = icmp slt i32 %24, %27
  br i1 %28, label %29, label %40

29:                                               ; preds = %23
  %30 = load i32, ptr %7, align 4, !tbaa !8
  %31 = icmp ne i32 %30, 0
  %32 = select i1 %31, i32 -1, i32 0
  %33 = load ptr, ptr %9, align 8, !tbaa !29
  %34 = load i32, ptr %10, align 4, !tbaa !8
  %35 = sext i32 %34 to i64
  %36 = getelementptr inbounds i32, ptr %33, i64 %35
  store i32 %32, ptr %36, align 4, !tbaa !8
  br label %37

37:                                               ; preds = %29
  %38 = load i32, ptr %10, align 4, !tbaa !8
  %39 = add nsw i32 %38, 1
  store i32 %39, ptr %10, align 4, !tbaa !8
  br label %23, !llvm.loop !93

40:                                               ; preds = %23
  call void @llvm.lifetime.end.p0(i64 4, ptr %10) #8
  call void @llvm.lifetime.end.p0(i64 8, ptr %9) #8
  ret void
}